; Function Attrs: mustprogress nofree norecurse nosync nounwind memory(read, inaccessiblemem: write) uwtable
define dso_local noundef ptr @_ZNK4llvm10BasicBlock17getLandingPadInstEv(ptr noundef nonnull readonly align 8 dereferenceable(80) %0) local_unnamed_addr #12 align 2 {
  %2 = getelementptr inbounds nuw i8, ptr %0, i64 56
  %3 = getelementptr inbounds nuw i8, ptr %0, i64 48
  %.sroa.012.017.i = load ptr, ptr %2, align 8
  %.not18.i = icmp ne ptr %.sroa.012.017.i, %3
  tail call void @llvm.assume(i1 %.not18.i)
  %4 = getelementptr inbounds i8, ptr %.sroa.012.017.i, i64 -24
  %5 = load i8, ptr %4, align 8
  %6 = icmp eq i8 %5, 84
  br i1 %6, label %.lr.ph.i, label %_ZNK4llvm10BasicBlock14getFirstNonPHIEv.exit

.lr.ph.i:                                         ; preds = %1, %.lr.ph.i
  %.sroa.012.019.i1 = phi ptr [ %.sroa.012.0.i, %.lr.ph.i ], [ %.sroa.012.017.i, %1 ]
  %7 = getelementptr inbounds nuw i8, ptr %.sroa.012.019.i1, i64 8
  %.sroa.012.0.i = load ptr, ptr %7, align 8
  %.not.i = icmp ne ptr %.sroa.012.0.i, %3
  tail call void @llvm.assume(i1 %.not.i)
  %8 = getelementptr inbounds i8, ptr %.sroa.012.0.i, i64 -24
  %9 = load i8, ptr %8, align 8
  %10 = icmp eq i8 %9, 84
  br i1 %10, label %.lr.ph.i, label %_ZNK4llvm10BasicBlock14getFirstNonPHIEv.exit

_ZNK4llvm10BasicBlock14getFirstNonPHIEv.exit:     ; preds = %.lr.ph.i, %1
  %11 = phi i8 [ %5, %1 ], [ %9, %.lr.ph.i ]
  %.sroa.012.019.i.lcssa = phi ptr [ %.sroa.012.017.i, %1 ], [ %.sroa.012.0.i, %.lr.ph.i ]
  %12 = getelementptr inbounds i8, ptr %.sroa.012.019.i.lcssa, i64 -24
  %13 = icmp eq i8 %11, 95
  %spec.select.i.i = select i1 %13, ptr %12, ptr null
  ret ptr %spec.select.i.i
}